target datalayout = "e-m:e-p270:32:32-p271:32:32-p272:64:64-i64:64-i128:128-f80:128-n8:16:32:64-S128"
target triple = "x86_64-pc-linux-gnu"

%struct._radius_attr_info_t = type { ptr, %union._radius_attr_type_t, i32, i8, i8, ptr, ptr, ptr, i32, i32, i32, i32, i32, i32, ptr }
%union._radius_attr_type_t = type { i32 }
%struct._radius_dictionary_t = type { ptr, ptr, ptr, ptr, ptr }
%struct._radius_vendor_info_t = type { ptr, i32, ptr, i32, i32, i32, i8 }

@.str.3 = private unnamed_addr constant [8 x i8] c"Unknown\00", align 1
@dict = internal global ptr null, align 8
@.str.39 = private unnamed_addr constant [32 x i8] c"epan/dissectors/packet-radius.c\00", align 1
@.str.55 = private unnamed_addr constant [29 x i8] c"%s:%u: failed assertion \22%s\22\00", align 1
@.str.56 = private unnamed_addr constant [35 x i8] c"radius_avp_dissector != ((void*)0)\00", align 1
@.str.57 = private unnamed_addr constant [6 x i8] c"%s-%u\00", align 1
@.str.58 = private unnamed_addr constant [21 x i8] c"Unknown-Attribute-%u\00", align 1
@no_vendor = internal global { ptr, i32, [4 x i8], ptr, i32, i32, i32, i8, [3 x i8] } { ptr @.str.107, i32 0, [4 x i8] zeroinitializer, ptr null, i32 -1, i32 1, i32 1, i8 0, [3 x i8] zeroinitializer }, align 8

; Function Attrs: alwaysinline nounwind
define internal ptr @memset.inline(ptr %0, i32 %1, i64 %2) #3 {
  %4 = alloca ptr, align 8
  %5 = alloca i32, align 4
  %6 = alloca i64, align 8
  store ptr %0, ptr %4, align 8
  store i32 %1, ptr %5, align 4
  store i64 %2, ptr %6, align 8
  %7 = load ptr, ptr %4, align 8
  %8 = load i32, ptr %5, align 4
  %9 = load i64, ptr %6, align 8
  %10 = load ptr, ptr %4, align 8
  %11 = call i64 @llvm.objectsize.i64.p0(ptr %10, i1 false, i1 true, i1 true)
  %12 = call ptr @__memset_chk(ptr noundef %7, i32 noundef %8, i64 noundef %9, i64 noundef %11) #17
  ret ptr %12
}

; Function Attrs: null_pointer_is_valid sspstrong uwtable
define hidden void @radius_register_avp_dissector(i32 noundef %0, i32 noundef %1, ptr noundef %2) #0 {
  %4 = alloca i32, align 4
  %5 = alloca i32, align 4
  %6 = alloca ptr, align 8
  %7 = alloca ptr, align 8
  %8 = alloca ptr, align 8
  %9 = alloca ptr, align 8
  %10 = alloca %union._radius_attr_type_t, align 4
  %11 = alloca i64, align 8
  %12 = alloca i64, align 8
  %13 = alloca ptr, align 8
  %14 = alloca ptr, align 8
  %15 = alloca i64, align 8
  %16 = alloca i64, align 8
  %17 = alloca ptr, align 8
  %18 = alloca ptr, align 8
  store i32 %0, ptr %4, align 4
  store i32 %1, ptr %5, align 4
  store ptr %2, ptr %6, align 8
  call void @llvm.lifetime.start.p0(i64 8, ptr %7) #17
  call void @llvm.lifetime.start.p0(i64 8, ptr %8) #17
  call void @llvm.lifetime.start.p0(i64 8, ptr %9) #17
  call void @llvm.lifetime.start.p0(i64 4, ptr %10) #17
  %19 = load ptr, ptr %6, align 8
  %20 = icmp ne ptr %19, null
  br i1 %20, label %21, label %22

21:                                               ; preds = %3
  br label %24

22:                                               ; preds = %3
  call void (ptr, ...) @proto_report_dissector_bug(ptr noundef @.str.55, ptr noundef @.str.39, i32 noundef 2560, ptr noundef @.str.56) #18
  unreachable

23:                                               ; No predecessors!
  br label %24

24:                                               ; preds = %23, %21
  %25 = call ptr @memset.inline(ptr noundef %10, i32 noundef 0, i64 noundef 4) #17
  %26 = load i32, ptr %5, align 4
  %27 = trunc i32 %26 to i8
  %28 = getelementptr [2 x i8], ptr %10, i64 0, i64 0
  store i8 %27, ptr %28, align 4
  %29 = load i32, ptr %4, align 4
  %30 = icmp ne i32 %29, 0
  br i1 %30, label %31, label %121

31:                                               ; preds = %24
  %32 = load ptr, ptr @dict, align 8
  %33 = getelementptr inbounds nuw %struct._radius_dictionary_t, ptr %32, i32 0, i32 2
  %34 = load ptr, ptr %33, align 8
  %35 = load i32, ptr %4, align 4
  %36 = zext i32 %35 to i64
  %37 = inttoptr i64 %36 to ptr
  %38 = call ptr @g_hash_table_lookup(ptr noundef %34, ptr noundef %37)
  store ptr %38, ptr %7, align 8
  %39 = load ptr, ptr %7, align 8
  %40 = icmp ne ptr %39, null
  br i1 %40, label %110, label %41

41:                                               ; preds = %31
  call void @llvm.lifetime.start.p0(i64 8, ptr %11) #17
  store i64 1, ptr %11, align 8
  call void @llvm.lifetime.start.p0(i64 8, ptr %12) #17
  store i64 40, ptr %12, align 8
  call void @llvm.lifetime.start.p0(i64 8, ptr %13) #17
  %42 = load i64, ptr %12, align 8
  %43 = icmp eq i64 %42, 1
  br i1 %43, label %44, label %47

44:                                               ; preds = %41
  %45 = load i64, ptr %11, align 8
  %46 = call noalias ptr @g_malloc(i64 noundef %45) #19
  store ptr %46, ptr %13, align 8
  br label %68

47:                                               ; preds = %41
  %48 = load i64, ptr %11, align 8
  %49 = call i1 @llvm.is.constant.i64(i64 %48)
  br i1 %49, label %50, label %63

50:                                               ; preds = %47
  %51 = load i64, ptr %12, align 8
  %52 = icmp eq i64 %51, 0
  br i1 %52, label %58, label %53

53:                                               ; preds = %50
  %54 = load i64, ptr %11, align 8
  %55 = load i64, ptr %12, align 8
  %56 = udiv i64 -1, %55
  %57 = icmp ule i64 %54, %56
  br i1 %57, label %58, label %63

58:                                               ; preds = %53, %50
  %59 = load i64, ptr %11, align 8
  %60 = load i64, ptr %12, align 8
  %61 = mul i64 %59, %60
  %62 = call noalias ptr @g_malloc(i64 noundef %61) #19
  store ptr %62, ptr %13, align 8
  br label %67

63:                                               ; preds = %53, %47
  %64 = load i64, ptr %11, align 8
  %65 = load i64, ptr %12, align 8
  %66 = call noalias ptr @g_malloc_n(i64 noundef %64, i64 noundef %65) #20
  store ptr %66, ptr %13, align 8
  br label %67

67:                                               ; preds = %63, %58
  br label %68

68:                                               ; preds = %67, %44
  %69 = load ptr, ptr %13, align 8
  store ptr %69, ptr %14, align 8
  call void @llvm.lifetime.end.p0(i64 8, ptr %13) #17
  call void @llvm.lifetime.end.p0(i64 8, ptr %12) #17
  call void @llvm.lifetime.end.p0(i64 8, ptr %11) #17
  %70 = load ptr, ptr %14, align 8
  store ptr %70, ptr %7, align 8
  %71 = load i32, ptr %4, align 4
  %72 = call ptr @enterprises_lookup(i32 noundef %71, ptr noundef @.str.3)
  %73 = load i32, ptr %4, align 4
  %74 = call noalias ptr (ptr, ptr, ...) @wmem_strdup_printf(ptr noundef null, ptr noundef @.str.57, ptr noundef %72, i32 noundef %73)
  %75 = load ptr, ptr %7, align 8
  %76 = getelementptr inbounds nuw %struct._radius_vendor_info_t, ptr %75, i32 0, i32 0
  store ptr %74, ptr %76, align 8
  %77 = load i32, ptr %4, align 4
  %78 = load ptr, ptr %7, align 8
  %79 = getelementptr inbounds nuw %struct._radius_vendor_info_t, ptr %78, i32 0, i32 1
  store i32 %77, ptr %79, align 8
  %80 = call ptr @g_hash_table_new_full(ptr noundef @g_direct_hash, ptr noundef @g_direct_equal, ptr noundef null, ptr noundef @free_radius_attr_info)
  %81 = load ptr, ptr %7, align 8
  %82 = getelementptr inbounds nuw %struct._radius_vendor_info_t, ptr %81, i32 0, i32 2
  store ptr %80, ptr %82, align 8
  %83 = load i32, ptr getelementptr inbounds nuw (%struct._radius_vendor_info_t, ptr @no_vendor, i32 0, i32 3), align 8
  %84 = load ptr, ptr %7, align 8
  %85 = getelementptr inbounds nuw %struct._radius_vendor_info_t, ptr %84, i32 0, i32 3
  store i32 %83, ptr %85, align 8
  %86 = load ptr, ptr %7, align 8
  %87 = getelementptr inbounds nuw %struct._radius_vendor_info_t, ptr %86, i32 0, i32 4
  store i32 1, ptr %87, align 4
  %88 = load ptr, ptr %7, align 8
  %89 = getelementptr inbounds nuw %struct._radius_vendor_info_t, ptr %88, i32 0, i32 5
  store i32 1, ptr %89, align 8
  %90 = load ptr, ptr %7, align 8
  %91 = getelementptr inbounds nuw %struct._radius_vendor_info_t, ptr %90, i32 0, i32 6
  store i8 0, ptr %91, align 4
  %92 = load ptr, ptr @dict, align 8
  %93 = getelementptr inbounds nuw %struct._radius_dictionary_t, ptr %92, i32 0, i32 2
  %94 = load ptr, ptr %93, align 8
  %95 = load ptr, ptr %7, align 8
  %96 = getelementptr inbounds nuw %struct._radius_vendor_info_t, ptr %95, i32 0, i32 1
  %97 = load i32, ptr %96, align 8
  %98 = zext i32 %97 to i64
  %99 = inttoptr i64 %98 to ptr
  %100 = load ptr, ptr %7, align 8
  %101 = call i32 @g_hash_table_insert(ptr noundef %94, ptr noundef %99, ptr noundef %100)
  %102 = load ptr, ptr @dict, align 8
  %103 = getelementptr inbounds nuw %struct._radius_dictionary_t, ptr %102, i32 0, i32 3
  %104 = load ptr, ptr %103, align 8
  %105 = load ptr, ptr %7, align 8
  %106 = getelementptr inbounds nuw %struct._radius_vendor_info_t, ptr %105, i32 0, i32 0
  %107 = load ptr, ptr %106, align 8
  %108 = load ptr, ptr %7, align 8
  %109 = call i32 @g_hash_table_insert(ptr noundef %104, ptr noundef %107, ptr noundef %108)
  br label %110

110:                                              ; preds = %68, %31
  %111 = load ptr, ptr %7, align 8
  %112 = getelementptr inbounds nuw %struct._radius_vendor_info_t, ptr %111, i32 0, i32 2
  %113 = load ptr, ptr %112, align 8
  %114 = load i32, ptr %10, align 4
  %115 = zext i32 %114 to i64
  %116 = inttoptr i64 %115 to ptr
  %117 = call ptr @g_hash_table_lookup(ptr noundef %113, ptr noundef %116)
  store ptr %117, ptr %8, align 8
  %118 = load ptr, ptr %7, align 8
  %119 = getelementptr inbounds nuw %struct._radius_vendor_info_t, ptr %118, i32 0, i32 2
  %120 = load ptr, ptr %119, align 8
  store ptr %120, ptr %9, align 8
  br label %132

121:                                              ; preds = %24
  %122 = load ptr, ptr @dict, align 8
  %123 = getelementptr inbounds nuw %struct._radius_dictionary_t, ptr %122, i32 0, i32 0
  %124 = load ptr, ptr %123, align 8
  %125 = load i32, ptr %10, align 4
  %126 = zext i32 %125 to i64
  %127 = inttoptr i64 %126 to ptr
  %128 = call ptr @g_hash_table_lookup(ptr noundef %124, ptr noundef %127)
  store ptr %128, ptr %8, align 8
  %129 = load ptr, ptr @dict, align 8
  %130 = getelementptr inbounds nuw %struct._radius_dictionary_t, ptr %129, i32 0, i32 0
  %131 = load ptr, ptr %130, align 8
  store ptr %131, ptr %9, align 8
  br label %132

132:                                              ; preds = %121, %110
  %133 = load ptr, ptr %8, align 8
  %134 = icmp ne ptr %133, null
  br i1 %134, label %202, label %135

135:                                              ; preds = %132
  call void @llvm.lifetime.start.p0(i64 8, ptr %15) #17
  store i64 1, ptr %15, align 8
  call void @llvm.lifetime.start.p0(i64 8, ptr %16) #17
  store i64 80, ptr %16, align 8
  call void @llvm.lifetime.start.p0(i64 8, ptr %17) #17
  %136 = load i64, ptr %16, align 8
  %137 = icmp eq i64 %136, 1
  br i1 %137, label %138, label %141

138:                                              ; preds = %135
  %139 = load i64, ptr %15, align 8
  %140 = call noalias ptr @g_malloc(i64 noundef %139) #19
  store ptr %140, ptr %17, align 8
  br label %162

141:                                              ; preds = %135
  %142 = load i64, ptr %15, align 8
  %143 = call i1 @llvm.is.constant.i64(i64 %142)
  br i1 %143, label %144, label %157

144:                                              ; preds = %141
  %145 = load i64, ptr %16, align 8
  %146 = icmp eq i64 %145, 0
  br i1 %146, label %152, label %147

147:                                              ; preds = %144
  %148 = load i64, ptr %15, align 8
  %149 = load i64, ptr %16, align 8
  %150 = udiv i64 -1, %149
  %151 = icmp ule i64 %148, %150
  br i1 %151, label %152, label %157

152:                                              ; preds = %147, %144
  %153 = load i64, ptr %15, align 8
  %154 = load i64, ptr %16, align 8
  %155 = mul i64 %153, %154
  %156 = call noalias ptr @g_malloc(i64 noundef %155) #19
  store ptr %156, ptr %17, align 8
  br label %161

157:                                              ; preds = %147, %141
  %158 = load i64, ptr %15, align 8
  %159 = load i64, ptr %16, align 8
  %160 = call noalias ptr @g_malloc_n(i64 noundef %158, i64 noundef %159) #20
  store ptr %160, ptr %17, align 8
  br label %161

161:                                              ; preds = %157, %152
  br label %162

162:                                              ; preds = %161, %138
  %163 = load ptr, ptr %17, align 8
  store ptr %163, ptr %18, align 8
  call void @llvm.lifetime.end.p0(i64 8, ptr %17) #17
  call void @llvm.lifetime.end.p0(i64 8, ptr %16) #17
  call void @llvm.lifetime.end.p0(i64 8, ptr %15) #17
  %164 = load ptr, ptr %18, align 8
  store ptr %164, ptr %8, align 8
  %165 = load i32, ptr %10, align 4
  %166 = call noalias ptr (ptr, ptr, ...) @wmem_strdup_printf(ptr noundef null, ptr noundef @.str.58, i32 noundef %165)
  %167 = load ptr, ptr %8, align 8
  %168 = getelementptr inbounds nuw %struct._radius_attr_info_t, ptr %167, i32 0, i32 0
  store ptr %166, ptr %168, align 8
  %169 = load ptr, ptr %8, align 8
  %170 = getelementptr inbounds nuw %struct._radius_attr_info_t, ptr %169, i32 0, i32 1
  call void @llvm.memcpy.p0.p0.i64(ptr align 8 %170, ptr align 4 %10, i64 4, i1 false)
  %171 = load ptr, ptr %8, align 8
  %172 = getelementptr inbounds nuw %struct._radius_attr_info_t, ptr %171, i32 0, i32 2
  store i32 0, ptr %172, align 4
  %173 = load ptr, ptr %8, align 8
  %174 = getelementptr inbounds nuw %struct._radius_attr_info_t, ptr %173, i32 0, i32 5
  store ptr null, ptr %174, align 8
  %175 = load ptr, ptr %8, align 8
  %176 = getelementptr inbounds nuw %struct._radius_attr_info_t, ptr %175, i32 0, i32 7
  store ptr null, ptr %176, align 8
  %177 = load i32, ptr getelementptr inbounds nuw (%struct._radius_attr_info_t, ptr @no_dictionary_entry, i32 0, i32 9), align 4
  %178 = load ptr, ptr %8, align 8
  %179 = getelementptr inbounds nuw %struct._radius_attr_info_t, ptr %178, i32 0, i32 9
  store i32 %177, ptr %179, align 4
  %180 = load ptr, ptr %8, align 8
  %181 = getelementptr inbounds nuw %struct._radius_attr_info_t, ptr %180, i32 0, i32 3
  store i8 0, ptr %181, align 8
  %182 = load ptr, ptr %8, align 8
  %183 = getelementptr inbounds nuw %struct._radius_attr_info_t, ptr %182, i32 0, i32 4
  store i8 0, ptr %183, align 1
  %184 = load ptr, ptr %8, align 8
  %185 = getelementptr inbounds nuw %struct._radius_attr_info_t, ptr %184, i32 0, i32 12
  store i32 -1, ptr %185, align 8
  %186 = load i32, ptr getelementptr inbounds nuw (%struct._radius_attr_info_t, ptr @no_dictionary_entry, i32 0, i32 13), align 4
  %187 = load ptr, ptr %8, align 8
  %188 = getelementptr inbounds nuw %struct._radius_attr_info_t, ptr %187, i32 0, i32 13
  store i32 %186, ptr %188, align 4
  %189 = load i32, ptr getelementptr inbounds nuw (%struct._radius_attr_info_t, ptr @no_dictionary_entry, i32 0, i32 8), align 8
  %190 = load ptr, ptr %8, align 8
  %191 = getelementptr inbounds nuw %struct._radius_attr_info_t, ptr %190, i32 0, i32 8
  store i32 %189, ptr %191, align 8
  %192 = load ptr, ptr %8, align 8
  %193 = getelementptr inbounds nuw %struct._radius_attr_info_t, ptr %192, i32 0, i32 14
  store ptr null, ptr %193, align 8
  %194 = load ptr, ptr %9, align 8
  %195 = load ptr, ptr %8, align 8
  %196 = getelementptr inbounds nuw %struct._radius_attr_info_t, ptr %195, i32 0, i32 1
  %197 = load i32, ptr %196, align 8
  %198 = zext i32 %197 to i64
  %199 = inttoptr i64 %198 to ptr
  %200 = load ptr, ptr %8, align 8
  %201 = call i32 @g_hash_table_insert(ptr noundef %194, ptr noundef %199, ptr noundef %200)
  br label %202

202:                                              ; preds = %162, %132
  %203 = load ptr, ptr %6, align 8
  %204 = load ptr, ptr %8, align 8
  %205 = getelementptr inbounds nuw %struct._radius_attr_info_t, ptr %204, i32 0, i32 6
  store ptr %203, ptr %205, align 8
  call void @llvm.lifetime.end.p0(i64 4, ptr %10) #17
  call void @llvm.lifetime.end.p0(i64 8, ptr %9) #17
  call void @llvm.lifetime.end.p0(i64 8, ptr %8) #17
  call void @llvm.lifetime.end.p0(i64 8, ptr %7) #17
  ret void
}