; Function Attrs: null_pointer_is_valid sspstrong uwtable
define hidden void @radius_register_avp_dissector(i32 noundef %0, i32 noundef %1, ptr noundef %2) local_unnamed_addr #0 {
  %.not = icmp eq ptr %2, null
  br i1 %.not, label %4, label %5

4:                                                ; preds = %3
  tail call void (ptr, ...) @proto_report_dissector_bug(ptr noundef nonnull @.str.55, ptr noundef nonnull @.str.39, i32 noundef 2560, ptr noundef nonnull @.str.56) #15
  unreachable

5:                                                ; preds = %3
  %.not69 = icmp eq i32 %0, 0
  %6 = load ptr, ptr @dict, align 8
  br i1 %.not69, label %43, label %7

7:                                                ; preds = %5
  %8 = getelementptr inbounds nuw i8, ptr %6, i64 16
  %9 = load ptr, ptr %8, align 8
  %10 = zext i32 %0 to i64
  %11 = inttoptr i64 %10 to ptr
  %12 = tail call ptr @g_hash_table_lookup(ptr noundef %9, ptr noundef nonnull %11)
  %.not70 = icmp eq ptr %12, null
  br i1 %.not70, label %13, label %37

13:                                               ; preds = %7
  %14 = tail call noalias dereferenceable_or_null(40) ptr @g_malloc(i64 noundef 40) #16
  %15 = tail call ptr @enterprises_lookup(i32 noundef %0, ptr noundef nonnull @.str.3)
  %16 = tail call noalias ptr (ptr, ptr, ...) @wmem_strdup_printf(ptr noundef null, ptr noundef nonnull @.str.57, ptr noundef %15, i32 noundef %0)
  store ptr %16, ptr %14, align 8
  %17 = getelementptr inbounds nuw i8, ptr %14, i64 8
  store i32 %0, ptr %17, align 8
  %18 = tail call ptr @g_hash_table_new_full(ptr noundef nonnull @g_direct_hash, ptr noundef nonnull @g_direct_equal, ptr noundef null, ptr noundef nonnull @free_radius_attr_info)
  %19 = getelementptr inbounds nuw i8, ptr %14, i64 16
  store ptr %18, ptr %19, align 8
  %20 = load i32, ptr getelementptr inbounds nuw (i8, ptr @no_vendor, i64 24), align 8
  %21 = getelementptr inbounds nuw i8, ptr %14, i64 24
  store i32 %20, ptr %21, align 8
  %22 = getelementptr inbounds nuw i8, ptr %14, i64 28
  store i32 1, ptr %22, align 4
  %23 = getelementptr inbounds nuw i8, ptr %14, i64 32
  store i32 1, ptr %23, align 8
  %24 = getelementptr inbounds nuw i8, ptr %14, i64 36
  store i8 0, ptr %24, align 4
  %25 = load ptr, ptr @dict, align 8
  %26 = getelementptr inbounds nuw i8, ptr %25, i64 16
  %27 = load ptr, ptr %26, align 8
  %28 = load i32, ptr %17, align 8
  %29 = zext i32 %28 to i64
  %30 = inttoptr i64 %29 to ptr
  %31 = tail call i32 @g_hash_table_insert(ptr noundef %27, ptr noundef %30, ptr noundef %14)
  %32 = load ptr, ptr @dict, align 8
  %33 = getelementptr inbounds nuw i8, ptr %32, i64 24
  %34 = load ptr, ptr %33, align 8
  %35 = load ptr, ptr %14, align 8
  %36 = tail call i32 @g_hash_table_insert(ptr noundef %34, ptr noundef %35, ptr noundef %14)
  br label %37

37:                                               ; preds = %13, %7
  %.0 = phi ptr [ %12, %7 ], [ %14, %13 ]
  %38 = getelementptr inbounds nuw i8, ptr %.0, i64 16
  %39 = load ptr, ptr %38, align 8
  %.sroa.0.0.insert.ext = and i32 %1, 255
  %40 = zext nneg i32 %.sroa.0.0.insert.ext to i64
  %41 = inttoptr i64 %40 to ptr
  %42 = tail call ptr @g_hash_table_lookup(ptr noundef %39, ptr noundef %41)
  br label %49

43:                                               ; preds = %5
  %44 = load ptr, ptr %6, align 8
  %.sroa.0.0.insert.ext73 = and i32 %1, 255
  %45 = zext nneg i32 %.sroa.0.0.insert.ext73 to i64
  %46 = inttoptr i64 %45 to ptr
  %47 = tail call ptr @g_hash_table_lookup(ptr noundef %44, ptr noundef %46)
  %48 = load ptr, ptr @dict, align 8
  br label %49

49:                                               ; preds = %43, %37
  %.064.in = phi ptr [ %38, %37 ], [ %48, %43 ]
  %.063 = phi ptr [ %42, %37 ], [ %47, %43 ]
  %.not71 = icmp eq ptr %.063, null
  br i1 %.not71, label %50, label %70

50:                                               ; preds = %49
  %.064 = load ptr, ptr %.064.in, align 8
  %51 = tail call noalias dereferenceable_or_null(80) ptr @g_malloc(i64 noundef 80) #16
  %.sroa.0.0.insert.ext77 = and i32 %1, 255
  %52 = tail call noalias ptr (ptr, ptr, ...) @wmem_strdup_printf(ptr noundef null, ptr noundef nonnull @.str.58, i32 noundef %.sroa.0.0.insert.ext77)
  store ptr %52, ptr %51, align 8
  %53 = getelementptr inbounds nuw i8, ptr %51, i64 8
  store i32 %.sroa.0.0.insert.ext77, ptr %53, align 8
  %54 = getelementptr inbounds nuw i8, ptr %51, i64 12
  store i32 0, ptr %54, align 4
  %55 = getelementptr inbounds nuw i8, ptr %51, i64 24
  store ptr null, ptr %55, align 8
  %56 = getelementptr inbounds nuw i8, ptr %51, i64 40
  store ptr null, ptr %56, align 8
  %57 = load i32, ptr getelementptr inbounds nuw (i8, ptr @no_dictionary_entry, i64 52), align 4
  %58 = getelementptr inbounds nuw i8, ptr %51, i64 52
  store i32 %57, ptr %58, align 4
  %59 = getelementptr inbounds nuw i8, ptr %51, i64 16
  store i8 0, ptr %59, align 8
  %60 = getelementptr inbounds nuw i8, ptr %51, i64 17
  store i8 0, ptr %60, align 1
  %61 = getelementptr inbounds nuw i8, ptr %51, i64 64
  store i32 -1, ptr %61, align 8
  %62 = load i32, ptr getelementptr inbounds nuw (i8, ptr @no_dictionary_entry, i64 68), align 4
  %63 = getelementptr inbounds nuw i8, ptr %51, i64 68
  store i32 %62, ptr %63, align 4
  %64 = load i32, ptr getelementptr inbounds nuw (i8, ptr @no_dictionary_entry, i64 48), align 8
  %65 = getelementptr inbounds nuw i8, ptr %51, i64 48
  store i32 %64, ptr %65, align 8
  %66 = getelementptr inbounds nuw i8, ptr %51, i64 72
  store ptr null, ptr %66, align 8
  %67 = zext nneg i32 %.sroa.0.0.insert.ext77 to i64
  %68 = inttoptr i64 %67 to ptr
  %69 = tail call i32 @g_hash_table_insert(ptr noundef %.064, ptr noundef %68, ptr noundef %51)
  br label %70

70:                                               ; preds = %50, %49
  %.1 = phi ptr [ %.063, %49 ], [ %51, %50 ]
  %71 = getelementptr inbounds nuw i8, ptr %.1, i64 32
  store ptr %2, ptr %71, align 8
  ret void
}